#include <math.h>
#include <stdio.h>
#include <stdlib.h>
#include <string.h>

main()
{
   char a[256];
   char b[256];
   char c[256];
   scanf("%s",a);
   scanf("%s",b);
   scanf("%s",c);
   int x,y,i,j,p,q,k,r,t,z;
   x=strlen(a);
   y=strlen(b);
   q=0;
   for(i=0;q==0&&i<x;i++)
   {
       if(b[0]==a[i])
       {
           p=i;
           for(j=0;b[j]==a[p]&&b[j]!='\0'&&a[p]!='\0';j++)
           {
               p++;
           }
           if(j==y)
           {
               q=q+1;
           }
       }
   }
   if(q==0)
   {
       for(z=0;z<x;z++)
       {
           printf("%c",a[z]);
       }
   }
   if(q!=0)
   {
       for(k=0;k<i-1;k++)
       {
          printf("%c",a[k]);
       }
       for(r=0;r<y;r++)
       {
          printf("%c",c[r]);
       }
       for(t=i+y-1;t<x;t++)
       {
          printf("%c",a[t]);
       }
   }
}