; ModuleID = '7/1009.c'
source_filename = "7/1009.c"
target datalayout = "e-m:e-p270:32:32-p271:32:32-p272:64:64-i64:64-f80:128-n8:16:32:64-S128"
target triple = "x86_64-pc-linux-gnu"

@.str = private unnamed_addr constant [3 x i8] c"%s\00", align 1
@.str.1 = private unnamed_addr constant [3 x i8] c"%c\00", align 1

; Function Attrs: noinline nounwind uwtable
define dso_local i32 @main() #0 {
  %1 = alloca i32, align 4
  %2 = alloca [256 x i8], align 16
  %3 = alloca [256 x i8], align 16
  %4 = alloca [256 x i8], align 16
  %5 = alloca i32, align 4
  %6 = alloca i32, align 4
  %7 = alloca i32, align 4
  %8 = alloca i32, align 4
  %9 = alloca i32, align 4
  %10 = alloca i32, align 4
  %11 = alloca i32, align 4
  %12 = alloca i32, align 4
  %13 = alloca i32, align 4
  %14 = alloca i32, align 4
  store i32 0, i32* %1, align 4
  %15 = getelementptr inbounds [256 x i8], [256 x i8]* %2, i64 0, i64 0
  %16 = call i32 (i8*, ...) @__isoc99_scanf(i8* getelementptr inbounds ([3 x i8], [3 x i8]* @.str, i64 0, i64 0), i8* %15)
  %17 = getelementptr inbounds [256 x i8], [256 x i8]* %3, i64 0, i64 0
  %18 = call i32 (i8*, ...) @__isoc99_scanf(i8* getelementptr inbounds ([3 x i8], [3 x i8]* @.str, i64 0, i64 0), i8* %17)
  %19 = getelementptr inbounds [256 x i8], [256 x i8]* %4, i64 0, i64 0
  %20 = call i32 (i8*, ...) @__isoc99_scanf(i8* getelementptr inbounds ([3 x i8], [3 x i8]* @.str, i64 0, i64 0), i8* %19)
  %21 = getelementptr inbounds [256 x i8], [256 x i8]* %2, i64 0, i64 0
  %22 = call i64 @strlen(i8* %21) #3
  %23 = trunc i64 %22 to i32
  store i32 %23, i32* %5, align 4
  %24 = getelementptr inbounds [256 x i8], [256 x i8]* %3, i64 0, i64 0
  %25 = call i64 @strlen(i8* %24) #3
  %26 = trunc i64 %25 to i32
  store i32 %26, i32* %6, align 4
  store i32 0, i32* %10, align 4
  store i32 0, i32* %7, align 4
  br label %27

27:                                               ; preds = %91, %0
  %28 = load i32, i32* %10, align 4
  %29 = icmp eq i32 %28, 0
  br i1 %29, label %30, label %34

30:                                               ; preds = %27
  %31 = load i32, i32* %7, align 4
  %32 = load i32, i32* %5, align 4
  %33 = icmp slt i32 %31, %32
  br label %34

34:                                               ; preds = %30, %27
  %35 = phi i1 [ false, %27 ], [ %33, %30 ]
  br i1 %35, label %36, label %94

36:                                               ; preds = %34
  %37 = getelementptr inbounds [256 x i8], [256 x i8]* %3, i64 0, i64 0
  %38 = load i8, i8* %37, align 16
  %39 = sext i8 %38 to i32
  %40 = load i32, i32* %7, align 4
  %41 = sext i32 %40 to i64
  %42 = getelementptr inbounds [256 x i8], [256 x i8]* %2, i64 0, i64 %41
  %43 = load i8, i8* %42, align 1
  %44 = sext i8 %43 to i32
  %45 = icmp eq i32 %39, %44
  br i1 %45, label %46, label %90

46:                                               ; preds = %36
  %47 = load i32, i32* %7, align 4
  store i32 %47, i32* %9, align 4
  store i32 0, i32* %8, align 4
  br label %48

48:                                               ; preds = %79, %46
  %49 = load i32, i32* %8, align 4
  %50 = sext i32 %49 to i64
  %51 = getelementptr inbounds [256 x i8], [256 x i8]* %3, i64 0, i64 %50
  %52 = load i8, i8* %51, align 1
  %53 = sext i8 %52 to i32
  %54 = load i32, i32* %9, align 4
  %55 = sext i32 %54 to i64
  %56 = getelementptr inbounds [256 x i8], [256 x i8]* %2, i64 0, i64 %55
  %57 = load i8, i8* %56, align 1
  %58 = sext i8 %57 to i32
  %59 = icmp eq i32 %53, %58
  br i1 %59, label %60, label %74

60:                                               ; preds = %48
  %61 = load i32, i32* %8, align 4
  %62 = sext i32 %61 to i64
  %63 = getelementptr inbounds [256 x i8], [256 x i8]* %3, i64 0, i64 %62
  %64 = load i8, i8* %63, align 1
  %65 = sext i8 %64 to i32
  %66 = icmp ne i32 %65, 0
  br i1 %66, label %67, label %74

67:                                               ; preds = %60
  %68 = load i32, i32* %9, align 4
  %69 = sext i32 %68 to i64
  %70 = getelementptr inbounds [256 x i8], [256 x i8]* %2, i64 0, i64 %69
  %71 = load i8, i8* %70, align 1
  %72 = sext i8 %71 to i32
  %73 = icmp ne i32 %72, 0
  br label %74

74:                                               ; preds = %67, %60, %48
  %75 = phi i1 [ false, %60 ], [ false, %48 ], [ %73, %67 ]
  br i1 %75, label %76, label %82

76:                                               ; preds = %74
  %77 = load i32, i32* %9, align 4
  %78 = add nsw i32 %77, 1
  store i32 %78, i32* %9, align 4
  br label %79

79:                                               ; preds = %76
  %80 = load i32, i32* %8, align 4
  %81 = add nsw i32 %80, 1
  store i32 %81, i32* %8, align 4
  br label %48

82:                                               ; preds = %74
  %83 = load i32, i32* %8, align 4
  %84 = load i32, i32* %6, align 4
  %85 = icmp eq i32 %83, %84
  br i1 %85, label %86, label %89

86:                                               ; preds = %82
  %87 = load i32, i32* %10, align 4
  %88 = add nsw i32 %87, 1
  store i32 %88, i32* %10, align 4
  br label %89

89:                                               ; preds = %86, %82
  br label %90

90:                                               ; preds = %89, %36
  br label %91

91:                                               ; preds = %90
  %92 = load i32, i32* %7, align 4
  %93 = add nsw i32 %92, 1
  store i32 %93, i32* %7, align 4
  br label %27

94:                                               ; preds = %34
  %95 = load i32, i32* %10, align 4
  %96 = icmp eq i32 %95, 0
  br i1 %96, label %97, label %113

97:                                               ; preds = %94
  store i32 0, i32* %14, align 4
  br label %98

98:                                               ; preds = %109, %97
  %99 = load i32, i32* %14, align 4
  %100 = load i32, i32* %5, align 4
  %101 = icmp slt i32 %99, %100
  br i1 %101, label %102, label %112

102:                                              ; preds = %98
  %103 = load i32, i32* %14, align 4
  %104 = sext i32 %103 to i64
  %105 = getelementptr inbounds [256 x i8], [256 x i8]* %2, i64 0, i64 %104
  %106 = load i8, i8* %105, align 1
  %107 = sext i8 %106 to i32
  %108 = call i32 (i8*, ...) @printf(i8* getelementptr inbounds ([3 x i8], [3 x i8]* @.str.1, i64 0, i64 0), i32 %107)
  br label %109

109:                                              ; preds = %102
  %110 = load i32, i32* %14, align 4
  %111 = add nsw i32 %110, 1
  store i32 %111, i32* %14, align 4
  br label %98

112:                                              ; preds = %98
  br label %113

113:                                              ; preds = %112, %94
  %114 = load i32, i32* %10, align 4
  %115 = icmp ne i32 %114, 0
  br i1 %115, label %116, label %167

116:                                              ; preds = %113
  store i32 0, i32* %11, align 4
  br label %117

117:                                              ; preds = %129, %116
  %118 = load i32, i32* %11, align 4
  %119 = load i32, i32* %7, align 4
  %120 = sub nsw i32 %119, 1
  %121 = icmp slt i32 %118, %120
  br i1 %121, label %122, label %132

122:                                              ; preds = %117
  %123 = load i32, i32* %11, align 4
  %124 = sext i32 %123 to i64
  %125 = getelementptr inbounds [256 x i8], [256 x i8]* %2, i64 0, i64 %124
  %126 = load i8, i8* %125, align 1
  %127 = sext i8 %126 to i32
  %128 = call i32 (i8*, ...) @printf(i8* getelementptr inbounds ([3 x i8], [3 x i8]* @.str.1, i64 0, i64 0), i32 %127)
  br label %129

129:                                              ; preds = %122
  %130 = load i32, i32* %11, align 4
  %131 = add nsw i32 %130, 1
  store i32 %131, i32* %11, align 4
  br label %117

132:                                              ; preds = %117
  store i32 0, i32* %12, align 4
  br label %133

133:                                              ; preds = %144, %132
  %134 = load i32, i32* %12, align 4
  %135 = load i32, i32* %6, align 4
  %136 = icmp slt i32 %134, %135
  br i1 %136, label %137, label %147

137:                                              ; preds = %133
  %138 = load i32, i32* %12, align 4
  %139 = sext i32 %138 to i64
  %140 = getelementptr inbounds [256 x i8], [256 x i8]* %4, i64 0, i64 %139
  %141 = load i8, i8* %140, align 1
  %142 = sext i8 %141 to i32
  %143 = call i32 (i8*, ...) @printf(i8* getelementptr inbounds ([3 x i8], [3 x i8]* @.str.1, i64 0, i64 0), i32 %142)
  br label %144

144:                                              ; preds = %137
  %145 = load i32, i32* %12, align 4
  %146 = add nsw i32 %145, 1
  store i32 %146, i32* %12, align 4
  br label %133

147:                                              ; preds = %133
  %148 = load i32, i32* %7, align 4
  %149 = load i32, i32* %6, align 4
  %150 = add nsw i32 %148, %149
  %151 = sub nsw i32 %150, 1
  store i32 %151, i32* %13, align 4
  br label %152

152:                                              ; preds = %163, %147
  %153 = load i32, i32* %13, align 4
  %154 = load i32, i32* %5, align 4
  %155 = icmp slt i32 %153, %154
  br i1 %155, label %156, label %166

156:                                              ; preds = %152
  %157 = load i32, i32* %13, align 4
  %158 = sext i32 %157 to i64
  %159 = getelementptr inbounds [256 x i8], [256 x i8]* %2, i64 0, i64 %158
  %160 = load i8, i8* %159, align 1
  %161 = sext i8 %160 to i32
  %162 = call i32 (i8*, ...) @printf(i8* getelementptr inbounds ([3 x i8], [3 x i8]* @.str.1, i64 0, i64 0), i32 %161)
  br label %163

163:                                              ; preds = %156
  %164 = load i32, i32* %13, align 4
  %165 = add nsw i32 %164, 1
  store i32 %165, i32* %13, align 4
  br label %152

166:                                              ; preds = %152
  br label %167

167:                                              ; preds = %166, %113
  %168 = load i32, i32* %1, align 4
  ret i32 %168
}

declare dso_local i32 @__isoc99_scanf(i8*, ...) #1

; Function Attrs: nounwind readonly
declare dso_local i64 @strlen(i8*) #2

declare dso_local i32 @printf(i8*, ...) #1


!llvm.module.flags = !{!0}
!llvm.ident = !{!1}

!0 = !{i32 1, !"wchar_size", i32 4}
!1 = !{!"clang version 10.0.0-4ubuntu1 "}
